target datalayout = "e-m:e-p270:32:32-p271:32:32-p272:64:64-i64:64-i128:128-f80:128-n8:16:32:64-S128"
target triple = "x86_64-pc-linux-gnu"

%struct.IDAckpntMemRec = type { double, double, [6 x ptr], i32, [6 x ptr], i32, i32, [6 x ptr], i32, [6 x ptr], i64, double, i32, i32, i32, i32, i32, double, double, double, double, double, double, double, double, double, [6 x double], [6 x double], [6 x double], [6 x double], [6 x double], i32, ptr }

; Function Attrs: nounwind uwtable
define internal void @IDAAckpntDelete(ptr noundef %0) #0 {
  %2 = alloca ptr, align 8
  %3 = alloca ptr, align 8
  %4 = alloca i32, align 4
  store ptr %0, ptr %2, align 8, !tbaa !87
  call void @llvm.lifetime.start.p0(i64 8, ptr %3) #6
  call void @llvm.lifetime.start.p0(i64 4, ptr %4) #6
  %5 = load ptr, ptr %2, align 8, !tbaa !87
  %6 = load ptr, ptr %5, align 8, !tbaa !89
  %7 = icmp ne ptr %6, null
  br i1 %7, label %8, label %109

8:                                                ; preds = %1
  %9 = load ptr, ptr %2, align 8, !tbaa !87
  %10 = load ptr, ptr %9, align 8, !tbaa !89
  store ptr %10, ptr %3, align 8, !tbaa !89
  %11 = load ptr, ptr %2, align 8, !tbaa !87
  %12 = load ptr, ptr %11, align 8, !tbaa !89
  %13 = getelementptr inbounds nuw %struct.IDAckpntMemRec, ptr %12, i32 0, i32 32
  %14 = load ptr, ptr %13, align 8, !tbaa !90
  %15 = load ptr, ptr %2, align 8, !tbaa !87
  store ptr %14, ptr %15, align 8, !tbaa !89
  store i32 0, ptr %4, align 4, !tbaa !9
  br label %16

16:                                               ; preds = %29, %8
  %17 = load i32, ptr %4, align 4, !tbaa !9
  %18 = load ptr, ptr %3, align 8, !tbaa !89
  %19 = getelementptr inbounds nuw %struct.IDAckpntMemRec, ptr %18, i32 0, i32 31
  %20 = load i32, ptr %19, align 8, !tbaa !92
  %21 = icmp slt i32 %17, %20
  br i1 %21, label %22, label %32

22:                                               ; preds = %16
  %23 = load ptr, ptr %3, align 8, !tbaa !89
  %24 = getelementptr inbounds nuw %struct.IDAckpntMemRec, ptr %23, i32 0, i32 2
  %25 = load i32, ptr %4, align 4, !tbaa !9
  %26 = sext i32 %25 to i64
  %27 = getelementptr inbounds [6 x ptr], ptr %24, i64 0, i64 %26
  %28 = load ptr, ptr %27, align 8, !tbaa !71
  call void @N_VDestroy(ptr noundef %28)
  br label %29

29:                                               ; preds = %22
  %30 = load i32, ptr %4, align 4, !tbaa !9
  %31 = add nsw i32 %30, 1
  store i32 %31, ptr %4, align 4, !tbaa !9
  br label %16

32:                                               ; preds = %16
  %33 = load ptr, ptr %3, align 8, !tbaa !89
  %34 = getelementptr inbounds nuw %struct.IDAckpntMemRec, ptr %33, i32 0, i32 3
  %35 = load i32, ptr %34, align 8, !tbaa !93
  %36 = icmp ne i32 %35, 0
  br i1 %36, label %37, label %55

37:                                               ; preds = %32
  store i32 0, ptr %4, align 4, !tbaa !9
  br label %38

38:                                               ; preds = %51, %37
  %39 = load i32, ptr %4, align 4, !tbaa !9
  %40 = load ptr, ptr %3, align 8, !tbaa !89
  %41 = getelementptr inbounds nuw %struct.IDAckpntMemRec, ptr %40, i32 0, i32 31
  %42 = load i32, ptr %41, align 8, !tbaa !92
  %43 = icmp slt i32 %39, %42
  br i1 %43, label %44, label %54

44:                                               ; preds = %38
  %45 = load ptr, ptr %3, align 8, !tbaa !89
  %46 = getelementptr inbounds nuw %struct.IDAckpntMemRec, ptr %45, i32 0, i32 4
  %47 = load i32, ptr %4, align 4, !tbaa !9
  %48 = sext i32 %47 to i64
  %49 = getelementptr inbounds [6 x ptr], ptr %46, i64 0, i64 %48
  %50 = load ptr, ptr %49, align 8, !tbaa !71
  call void @N_VDestroy(ptr noundef %50)
  br label %51

51:                                               ; preds = %44
  %52 = load i32, ptr %4, align 4, !tbaa !9
  %53 = add nsw i32 %52, 1
  store i32 %53, ptr %4, align 4, !tbaa !9
  br label %38

54:                                               ; preds = %38
  br label %55

55:                                               ; preds = %54, %32
  %56 = load ptr, ptr %3, align 8, !tbaa !89
  %57 = getelementptr inbounds nuw %struct.IDAckpntMemRec, ptr %56, i32 0, i32 5
  %58 = load i32, ptr %57, align 8, !tbaa !94
  %59 = icmp ne i32 %58, 0
  br i1 %59, label %60, label %81

60:                                               ; preds = %55
  store i32 0, ptr %4, align 4, !tbaa !9
  br label %61

61:                                               ; preds = %77, %60
  %62 = load i32, ptr %4, align 4, !tbaa !9
  %63 = load ptr, ptr %3, align 8, !tbaa !89
  %64 = getelementptr inbounds nuw %struct.IDAckpntMemRec, ptr %63, i32 0, i32 31
  %65 = load i32, ptr %64, align 8, !tbaa !92
  %66 = icmp slt i32 %62, %65
  br i1 %66, label %67, label %80

67:                                               ; preds = %61
  %68 = load ptr, ptr %3, align 8, !tbaa !89
  %69 = getelementptr inbounds nuw %struct.IDAckpntMemRec, ptr %68, i32 0, i32 7
  %70 = load i32, ptr %4, align 4, !tbaa !9
  %71 = sext i32 %70 to i64
  %72 = getelementptr inbounds [6 x ptr], ptr %69, i64 0, i64 %71
  %73 = load ptr, ptr %72, align 8, !tbaa !72
  %74 = load ptr, ptr %3, align 8, !tbaa !89
  %75 = getelementptr inbounds nuw %struct.IDAckpntMemRec, ptr %74, i32 0, i32 6
  %76 = load i32, ptr %75, align 4, !tbaa !95
  call void @N_VDestroyVectorArray(ptr noundef %73, i32 noundef %76)
  br label %77

77:                                               ; preds = %67
  %78 = load i32, ptr %4, align 4, !tbaa !9
  %79 = add nsw i32 %78, 1
  store i32 %79, ptr %4, align 4, !tbaa !9
  br label %61

80:                                               ; preds = %61
  br label %81

81:                                               ; preds = %80, %55
  %82 = load ptr, ptr %3, align 8, !tbaa !89
  %83 = getelementptr inbounds nuw %struct.IDAckpntMemRec, ptr %82, i32 0, i32 8
  %84 = load i32, ptr %83, align 8, !tbaa !96
  %85 = icmp ne i32 %84, 0
  br i1 %85, label %86, label %107

86:                                               ; preds = %81
  store i32 0, ptr %4, align 4, !tbaa !9
  br label %87

87:                                               ; preds = %103, %86
  %88 = load i32, ptr %4, align 4, !tbaa !9
  %89 = load ptr, ptr %3, align 8, !tbaa !89
  %90 = getelementptr inbounds nuw %struct.IDAckpntMemRec, ptr %89, i32 0, i32 31
  %91 = load i32, ptr %90, align 8, !tbaa !92
  %92 = icmp slt i32 %88, %91
  br i1 %92, label %93, label %106

93:                                               ; preds = %87
  %94 = load ptr, ptr %3, align 8, !tbaa !89
  %95 = getelementptr inbounds nuw %struct.IDAckpntMemRec, ptr %94, i32 0, i32 9
  %96 = load i32, ptr %4, align 4, !tbaa !9
  %97 = sext i32 %96 to i64
  %98 = getelementptr inbounds [6 x ptr], ptr %95, i64 0, i64 %97
  %99 = load ptr, ptr %98, align 8, !tbaa !72
  %100 = load ptr, ptr %3, align 8, !tbaa !89
  %101 = getelementptr inbounds nuw %struct.IDAckpntMemRec, ptr %100, i32 0, i32 6
  %102 = load i32, ptr %101, align 4, !tbaa !95
  call void @N_VDestroyVectorArray(ptr noundef %99, i32 noundef %102)
  br label %103

103:                                              ; preds = %93
  %104 = load i32, ptr %4, align 4, !tbaa !9
  %105 = add nsw i32 %104, 1
  store i32 %105, ptr %4, align 4, !tbaa !9
  br label %87

106:                                              ; preds = %87
  br label %107

107:                                              ; preds = %106, %81
  %108 = load ptr, ptr %3, align 8, !tbaa !89
  call void @free(ptr noundef %108) #6
  store ptr null, ptr %3, align 8, !tbaa !89
  br label %109

109:                                              ; preds = %107, %1
  call void @llvm.lifetime.end.p0(i64 4, ptr %4) #6
  call void @llvm.lifetime.end.p0(i64 8, ptr %3) #6
  ret void
}